; Function Attrs: nounwind uwtable
define internal fastcc void @IDAAckpntDelete(ptr noundef captures(none) %0) unnamed_addr #0 {
  %2 = load ptr, ptr %0, align 8, !tbaa !105
  %.not = icmp eq ptr %2, null
  br i1 %.not, label %53, label %3

3:                                                ; preds = %1
  %4 = getelementptr inbounds nuw i8, ptr %2, i64 592
  %5 = load ptr, ptr %4, align 8, !tbaa !106
  store ptr %5, ptr %0, align 8, !tbaa !105
  %6 = getelementptr inbounds nuw i8, ptr %2, i64 584
  %7 = load i32, ptr %6, align 8, !tbaa !108
  %8 = icmp sgt i32 %7, 0
  br i1 %8, label %.lr.ph, label %._crit_edge

.lr.ph:                                           ; preds = %3
  %9 = getelementptr inbounds nuw i8, ptr %2, i64 16
  br label %10

10:                                               ; preds = %.lr.ph, %10
  %indvars.iv = phi i64 [ 0, %.lr.ph ], [ %indvars.iv.next, %10 ]
  %11 = getelementptr inbounds nuw [6 x ptr], ptr %9, i64 0, i64 %indvars.iv
  %12 = load ptr, ptr %11, align 8, !tbaa !68
  tail call void @N_VDestroy(ptr noundef %12) #9
  %indvars.iv.next = add nuw nsw i64 %indvars.iv, 1
  %13 = load i32, ptr %6, align 8, !tbaa !108
  %14 = sext i32 %13 to i64
  %15 = icmp slt i64 %indvars.iv.next, %14
  br i1 %15, label %10, label %._crit_edge, !llvm.loop !109

._crit_edge:                                      ; preds = %10, %3
  %16 = phi i32 [ %7, %3 ], [ %13, %10 ]
  %17 = getelementptr inbounds nuw i8, ptr %2, i64 64
  %18 = load i32, ptr %17, align 8, !tbaa !110
  %.not30 = icmp ne i32 %18, 0
  %19 = icmp sgt i32 %16, 0
  %or.cond = and i1 %.not30, %19
  br i1 %or.cond, label %.lr.ph39, label %.loopexit36

.lr.ph39:                                         ; preds = %._crit_edge
  %20 = getelementptr inbounds nuw i8, ptr %2, i64 72
  br label %21

21:                                               ; preds = %.lr.ph39, %21
  %indvars.iv45 = phi i64 [ 0, %.lr.ph39 ], [ %indvars.iv.next46, %21 ]
  %22 = getelementptr inbounds nuw [6 x ptr], ptr %20, i64 0, i64 %indvars.iv45
  %23 = load ptr, ptr %22, align 8, !tbaa !68
  tail call void @N_VDestroy(ptr noundef %23) #9
  %indvars.iv.next46 = add nuw nsw i64 %indvars.iv45, 1
  %24 = load i32, ptr %6, align 8, !tbaa !108
  %25 = sext i32 %24 to i64
  %26 = icmp slt i64 %indvars.iv.next46, %25
  br i1 %26, label %21, label %.loopexit36, !llvm.loop !111

.loopexit36:                                      ; preds = %21, %._crit_edge
  %27 = phi i32 [ %16, %._crit_edge ], [ %24, %21 ]
  %28 = getelementptr inbounds nuw i8, ptr %2, i64 120
  %29 = load i32, ptr %28, align 8, !tbaa !112
  %.not31 = icmp ne i32 %29, 0
  %30 = icmp sgt i32 %27, 0
  %or.cond56 = and i1 %.not31, %30
  br i1 %or.cond56, label %.lr.ph41, label %.loopexit34

.lr.ph41:                                         ; preds = %.loopexit36
  %31 = getelementptr inbounds nuw i8, ptr %2, i64 128
  %32 = getelementptr inbounds nuw i8, ptr %2, i64 124
  br label %33

33:                                               ; preds = %.lr.ph41, %33
  %indvars.iv48 = phi i64 [ 0, %.lr.ph41 ], [ %indvars.iv.next49, %33 ]
  %34 = getelementptr inbounds nuw [6 x ptr], ptr %31, i64 0, i64 %indvars.iv48
  %35 = load ptr, ptr %34, align 8, !tbaa !70
  %36 = load i32, ptr %32, align 4, !tbaa !113
  tail call void @N_VDestroyVectorArray(ptr noundef %35, i32 noundef %36) #9
  %indvars.iv.next49 = add nuw nsw i64 %indvars.iv48, 1
  %37 = load i32, ptr %6, align 8, !tbaa !108
  %38 = sext i32 %37 to i64
  %39 = icmp slt i64 %indvars.iv.next49, %38
  br i1 %39, label %33, label %.loopexit34, !llvm.loop !114

.loopexit34:                                      ; preds = %33, %.loopexit36
  %40 = phi i32 [ %27, %.loopexit36 ], [ %37, %33 ]
  %41 = getelementptr inbounds nuw i8, ptr %2, i64 176
  %42 = load i32, ptr %41, align 8, !tbaa !115
  %.not32 = icmp ne i32 %42, 0
  %43 = icmp sgt i32 %40, 0
  %or.cond57 = and i1 %.not32, %43
  br i1 %or.cond57, label %.lr.ph43, label %.loopexit

.lr.ph43:                                         ; preds = %.loopexit34
  %44 = getelementptr inbounds nuw i8, ptr %2, i64 184
  %45 = getelementptr inbounds nuw i8, ptr %2, i64 124
  br label %46

46:                                               ; preds = %.lr.ph43, %46
  %indvars.iv51 = phi i64 [ 0, %.lr.ph43 ], [ %indvars.iv.next52, %46 ]
  %47 = getelementptr inbounds nuw [6 x ptr], ptr %44, i64 0, i64 %indvars.iv51
  %48 = load ptr, ptr %47, align 8, !tbaa !70
  %49 = load i32, ptr %45, align 4, !tbaa !113
  tail call void @N_VDestroyVectorArray(ptr noundef %48, i32 noundef %49) #9
  %indvars.iv.next52 = add nuw nsw i64 %indvars.iv51, 1
  %50 = load i32, ptr %6, align 8, !tbaa !108
  %51 = sext i32 %50 to i64
  %52 = icmp slt i64 %indvars.iv.next52, %51
  br i1 %52, label %46, label %.loopexit, !llvm.loop !116

.loopexit:                                        ; preds = %46, %.loopexit34
  tail call void @free(ptr noundef nonnull %2) #9
  br label %53

53:                                               ; preds = %.loopexit, %1
  ret void
}